target datalayout = "e-m:e-p270:32:32-p271:32:32-p272:64:64-i64:64-i128:128-f80:128-n8:16:32:64-S128"
target triple = "x86_64-pc-linux-gnu"

%class.BarrierSet = type { ptr, %class.FakeRttiSupport, ptr, ptr, ptr, ptr, ptr }
%class.FakeRttiSupport = type <{ i64, i32, [4 x i8] }>
%class.WorkerTask.base = type <{ ptr, ptr, i32 }>
%class.NMethodClosure = type { ptr }
%class.ShenandoahConcurrentNMethodIterator = type { ptr, ptr }
%class.ShenandoahUnlinkTask = type { %class.WorkerTask.base, %class.ShenandoahNMethodUnlinkClosure, %class.ShenandoahConcurrentNMethodIterator }
%class.ShenandoahNMethodUnlinkClosure = type { %class.NMethodClosure, i8, ptr, ptr }
%class.WorkerTask = type <{ ptr, ptr, i32, [4 x i8] }>

@_ZN19ShenandoahCodeRoots14_nmethod_tableE = hidden global ptr null, align 8
@_ZN8Universe14_collectedHeapE = external global ptr, align 8
@_ZN10BarrierSet12_barrier_setE = external global ptr, align 8
@_ZTV10WorkerTask = linkonce_odr hidden unnamed_addr constant { [3 x ptr] } { [3 x ptr] [ptr null, ptr null, ptr @__cxa_pure_virtual] }, comdat, align 8
@_ZTV14NMethodClosure = linkonce_odr hidden unnamed_addr constant { [3 x ptr] } { [3 x ptr] [ptr null, ptr null, ptr @__cxa_pure_virtual] }, comdat, align 8
@.str.8 = private unnamed_addr constant [27 x i8] c"Shenandoah Unlink NMethods\00", align 1
@_ZTV20ShenandoahUnlinkTask = linkonce_odr hidden unnamed_addr constant { [3 x ptr] } { [3 x ptr] [ptr null, ptr null, ptr @_ZN20ShenandoahUnlinkTask4workEj] }, comdat, align 8
@_ZTV30ShenandoahNMethodUnlinkClosure = linkonce_odr hidden unnamed_addr constant { [3 x ptr] } { [3 x ptr] [ptr null, ptr null, ptr @_ZN30ShenandoahNMethodUnlinkClosure10do_nmethodEP7nmethod] }, comdat, align 8

; Function Attrs: mustprogress nounwind uwtable
define linkonce_odr hidden noundef ptr @_ZN8Universe4heapEv() #1 comdat align 2 {
  %1 = load ptr, ptr @_ZN8Universe14_collectedHeapE, align 8
  ret ptr %1
}

; Function Attrs: mustprogress nounwind uwtable
define linkonce_odr hidden noundef ptr @_Z16barrier_set_castI20ShenandoahBarrierSetEPT_P10BarrierSet(ptr noundef %0) #1 comdat {
  %2 = alloca ptr, align 8
  store ptr %0, ptr %2, align 8
  %3 = load ptr, ptr %2, align 8
  ret ptr %3
}

; Function Attrs: mustprogress nounwind uwtable
define linkonce_odr hidden noundef ptr @_ZN10BarrierSet11barrier_setEv() #1 comdat align 2 {
  %1 = load ptr, ptr @_ZN10BarrierSet12_barrier_setE, align 8
  ret ptr %1
}

; Function Attrs: mustprogress nounwind uwtable
define linkonce_odr hidden noundef ptr @_ZN13CollectedHeap10named_heapI14ShenandoahHeapEEPT_NS_4NameE(i32 noundef %0) #1 comdat align 2 {
  %2 = alloca i32, align 4
  %3 = alloca ptr, align 8
  store i32 %0, ptr %2, align 4
  %4 = call noundef ptr @_ZN8Universe4heapEv()
  store ptr %4, ptr %3, align 8
  %5 = load ptr, ptr %3, align 8
  ret ptr %5
}

; Function Attrs: mustprogress nounwind uwtable
define linkonce_odr hidden noundef ptr @_ZN10BarrierSet19barrier_set_nmethodEv(ptr noundef nonnull align 8 dereferenceable(64) %0) #1 comdat align 2 {
  %2 = alloca ptr, align 8
  store ptr %0, ptr %2, align 8
  %3 = load ptr, ptr %2, align 8
  %4 = getelementptr inbounds %class.BarrierSet, ptr %3, i32 0, i32 5
  %5 = load ptr, ptr %4, align 8
  ret ptr %5
}

; Function Attrs: mustprogress nounwind uwtable
define linkonce_odr hidden noundef ptr @_ZN20ShenandoahBarrierSet11barrier_setEv() #1 comdat align 2 {
  %1 = call noundef ptr @_ZN10BarrierSet11barrier_setEv()
  %2 = call noundef ptr @_Z16barrier_set_castI20ShenandoahBarrierSetEPT_P10BarrierSet(ptr noundef %1)
  ret ptr %2
}

; Function Attrs: mustprogress nounwind uwtable
define linkonce_odr hidden noundef ptr @_ZN14ShenandoahHeap4heapEv() #1 comdat align 2 {
  %1 = call noundef ptr @_ZN13CollectedHeap10named_heapI14ShenandoahHeapEEPT_NS_4NameE(i32 noundef 6)
  ret ptr %1
}

; Function Attrs: mustprogress nounwind uwtable
define linkonce_odr hidden void @_ZN14NMethodClosureC2Ev(ptr noundef nonnull align 8 dereferenceable(8) %0) unnamed_addr #1 comdat align 2 {
  %2 = alloca ptr, align 8
  store ptr %0, ptr %2, align 8
  %3 = load ptr, ptr %2, align 8
  store ptr getelementptr inbounds inrange(-16, 8) ({ [3 x ptr] }, ptr @_ZTV14NMethodClosure, i32 0, i32 0, i32 2), ptr %3, align 8
  ret void
}

; Function Attrs: mustprogress nounwind uwtable
define linkonce_odr hidden noundef ptr @_ZN19ShenandoahCodeRoots5tableEv() #1 comdat align 2 {
  %1 = load ptr, ptr @_ZN19ShenandoahCodeRoots14_nmethod_tableE, align 8
  ret ptr %1
}

; Function Attrs: mustprogress nounwind uwtable
define linkonce_odr hidden void @_ZN30ShenandoahNMethodUnlinkClosureC2Eb(ptr noundef nonnull align 8 dereferenceable(32) %0, i1 noundef zeroext %1) unnamed_addr #1 comdat align 2 {
  %3 = alloca ptr, align 8
  %4 = alloca i8, align 1
  store ptr %0, ptr %3, align 8
  %5 = zext i1 %1 to i8
  store i8 %5, ptr %4, align 1
  %6 = load ptr, ptr %3, align 8
  call void @_ZN14NMethodClosureC2Ev(ptr noundef nonnull align 8 dereferenceable(8) %6) #6
  store ptr getelementptr inbounds inrange(-16, 8) ({ [3 x ptr] }, ptr @_ZTV30ShenandoahNMethodUnlinkClosure, i32 0, i32 0, i32 2), ptr %6, align 8
  %7 = getelementptr inbounds %class.ShenandoahNMethodUnlinkClosure, ptr %6, i32 0, i32 1
  %8 = load i8, ptr %4, align 1
  %9 = trunc i8 %8 to i1
  %10 = zext i1 %9 to i8
  store i8 %10, ptr %7, align 8
  %11 = getelementptr inbounds %class.ShenandoahNMethodUnlinkClosure, ptr %6, i32 0, i32 2
  %12 = call noundef ptr @_ZN14ShenandoahHeap4heapEv()
  store ptr %12, ptr %11, align 8
  %13 = getelementptr inbounds %class.ShenandoahNMethodUnlinkClosure, ptr %6, i32 0, i32 3
  %14 = call noundef ptr @_ZN20ShenandoahBarrierSet11barrier_setEv()
  %15 = call noundef ptr @_ZN10BarrierSet19barrier_set_nmethodEv(ptr noundef nonnull align 8 dereferenceable(64) %14)
  store ptr %15, ptr %13, align 8
  ret void
}

; Function Attrs: mustprogress nounwind uwtable
define linkonce_odr hidden void @_ZN10WorkerTaskC2EPKc(ptr noundef nonnull align 8 dereferenceable(20) %0, ptr noundef %1) unnamed_addr #1 comdat align 2 {
  %3 = alloca ptr, align 8
  %4 = alloca ptr, align 8
  store ptr %0, ptr %3, align 8
  store ptr %1, ptr %4, align 8
  %5 = load ptr, ptr %3, align 8
  store ptr getelementptr inbounds inrange(-16, 8) ({ [3 x ptr] }, ptr @_ZTV10WorkerTask, i32 0, i32 0, i32 2), ptr %5, align 8
  %6 = getelementptr inbounds %class.WorkerTask, ptr %5, i32 0, i32 1
  %7 = load ptr, ptr %4, align 8
  store ptr %7, ptr %6, align 8
  %8 = getelementptr inbounds %class.WorkerTask, ptr %5, i32 0, i32 2
  %9 = call noundef i32 @_ZN4GCId20current_or_undefinedEv()
  store i32 %9, ptr %8, align 8
  ret void
}

; Function Attrs: mustprogress nounwind uwtable
define linkonce_odr hidden void @_ZN20ShenandoahUnlinkTaskD2Ev(ptr noundef nonnull align 8 dereferenceable(72) %0) unnamed_addr #1 comdat align 2 {
  %2 = alloca ptr, align 8
  store ptr %0, ptr %2, align 8
  %3 = load ptr, ptr %2, align 8
  store ptr getelementptr inbounds inrange(-16, 8) ({ [3 x ptr] }, ptr @_ZTV20ShenandoahUnlinkTask, i32 0, i32 0, i32 2), ptr %3, align 8
  %4 = getelementptr inbounds %class.ShenandoahUnlinkTask, ptr %3, i32 0, i32 2
  call void @_ZN35ShenandoahConcurrentNMethodIterator15nmethods_do_endEv(ptr noundef nonnull align 8 dereferenceable(16) %4)
  ret void
}

; Function Attrs: mustprogress nounwind uwtable
define linkonce_odr hidden void @_ZN20ShenandoahUnlinkTaskC2Eb(ptr noundef nonnull align 8 dereferenceable(72) %0, i1 noundef zeroext %1) unnamed_addr #1 comdat align 2 {
  %3 = alloca ptr, align 8
  %4 = alloca i8, align 1
  store ptr %0, ptr %3, align 8
  %5 = zext i1 %1 to i8
  store i8 %5, ptr %4, align 1
  %6 = load ptr, ptr %3, align 8
  call void @_ZN10WorkerTaskC2EPKc(ptr noundef nonnull align 8 dereferenceable(20) %6, ptr noundef @.str.8)
  store ptr getelementptr inbounds inrange(-16, 8) ({ [3 x ptr] }, ptr @_ZTV20ShenandoahUnlinkTask, i32 0, i32 0, i32 2), ptr %6, align 8
  %7 = getelementptr inbounds %class.ShenandoahUnlinkTask, ptr %6, i32 0, i32 1
  %8 = load i8, ptr %4, align 1
  %9 = trunc i8 %8 to i1
  call void @_ZN30ShenandoahNMethodUnlinkClosureC2Eb(ptr noundef nonnull align 8 dereferenceable(32) %7, i1 noundef zeroext %9)
  %10 = getelementptr inbounds %class.ShenandoahUnlinkTask, ptr %6, i32 0, i32 2
  %11 = call noundef ptr @_ZN19ShenandoahCodeRoots5tableEv()
  call void @_ZN35ShenandoahConcurrentNMethodIteratorC1EP22ShenandoahNMethodTable(ptr noundef nonnull align 8 dereferenceable(16) %10, ptr noundef %11)
  %12 = getelementptr inbounds %class.ShenandoahUnlinkTask, ptr %6, i32 0, i32 2
  call void @_ZN35ShenandoahConcurrentNMethodIterator17nmethods_do_beginEv(ptr noundef nonnull align 8 dereferenceable(16) %12)
  ret void
}

; Function Attrs: mustprogress nounwind uwtable
define hidden void @_ZN19ShenandoahCodeRoots6unlinkEP13WorkerThreadsb(ptr noundef %0, i1 noundef zeroext %1) #1 align 2 {
  %3 = alloca ptr, align 8
  %4 = alloca i8, align 1
  %5 = alloca %class.ShenandoahUnlinkTask, align 8
  store ptr %0, ptr %3, align 8
  %6 = zext i1 %1 to i8
  store i8 %6, ptr %4, align 1
  %7 = load i8, ptr %4, align 1
  %8 = trunc i8 %7 to i1
  call void @_ZN20ShenandoahUnlinkTaskC2Eb(ptr noundef nonnull align 8 dereferenceable(72) %5, i1 noundef zeroext %8)
  %9 = load ptr, ptr %3, align 8
  call void @_ZN13WorkerThreads8run_taskEP10WorkerTask(ptr noundef nonnull align 8 dereferenceable(120) %9, ptr noundef %5)
  call void @_ZN20ShenandoahUnlinkTaskD2Ev(ptr noundef nonnull align 8 dereferenceable(72) %5) #6
  ret void
}