; Function Attrs: mustprogress nounwind uwtable
define hidden void @_ZN19ShenandoahCodeRoots6unlinkEP13WorkerThreadsb(ptr noundef %0, i1 noundef zeroext %1) local_unnamed_addr #0 align 2 {
  %3 = alloca %class.ShenandoahUnlinkTask, align 8
  %4 = getelementptr inbounds i8, ptr %3, i64 8
  store ptr @.str.8, ptr %4, align 8
  %5 = getelementptr inbounds i8, ptr %3, i64 16
  %6 = tail call noundef i32 @_ZN4GCId20current_or_undefinedEv() #7
  store i32 %6, ptr %5, align 8
  store ptr getelementptr inbounds inrange(-16, 8) (i8, ptr @_ZTV20ShenandoahUnlinkTask, i64 16), ptr %3, align 8
  %7 = getelementptr inbounds i8, ptr %3, i64 24
  %8 = zext i1 %1 to i8
  store ptr getelementptr inbounds inrange(-16, 8) (i8, ptr @_ZTV30ShenandoahNMethodUnlinkClosure, i64 16), ptr %7, align 8
  %9 = getelementptr inbounds i8, ptr %3, i64 32
  store i8 %8, ptr %9, align 8
  %10 = getelementptr inbounds i8, ptr %3, i64 40
  %11 = load ptr, ptr @_ZN8Universe14_collectedHeapE, align 8
  store ptr %11, ptr %10, align 8
  %12 = getelementptr inbounds i8, ptr %3, i64 48
  %13 = load ptr, ptr @_ZN10BarrierSet12_barrier_setE, align 8
  %14 = getelementptr inbounds i8, ptr %13, i64 48
  %15 = load ptr, ptr %14, align 8
  store ptr %15, ptr %12, align 8
  %16 = getelementptr inbounds i8, ptr %3, i64 56
  %17 = load ptr, ptr @_ZN19ShenandoahCodeRoots14_nmethod_tableE, align 8
  call void @_ZN35ShenandoahConcurrentNMethodIteratorC1EP22ShenandoahNMethodTable(ptr noundef nonnull align 8 dereferenceable(16) %16, ptr noundef %17) #7
  call void @_ZN35ShenandoahConcurrentNMethodIterator17nmethods_do_beginEv(ptr noundef nonnull align 8 dereferenceable(16) %16) #7
  call void @_ZN13WorkerThreads8run_taskEP10WorkerTask(ptr noundef nonnull align 8 dereferenceable(120) %0, ptr noundef nonnull %3) #7
  store ptr getelementptr inbounds inrange(-16, 8) (i8, ptr @_ZTV20ShenandoahUnlinkTask, i64 16), ptr %3, align 8
  call void @_ZN35ShenandoahConcurrentNMethodIterator15nmethods_do_endEv(ptr noundef nonnull align 8 dereferenceable(16) %16) #7
  ret void
}